; Function Attrs: mustprogress uwtable
define dso_local void @_ZN4Luau7CodeGen3X6418AssemblyBuilderX645mov64ENS1_11RegisterX64El(ptr noundef nonnull align 8 dereferenceable(252) %0, i8 %1, i64 noundef %2) local_unnamed_addr #0 align 2 personality ptr @__gxx_personality_v0 {
  %4 = getelementptr inbounds nuw i8, ptr %0, i64 80
  %5 = load i8, ptr %4, align 8, !tbaa !14, !range !61, !noundef !62
  %6 = trunc nuw i8 %5 to i1
  br i1 %6, label %7, label %15

7:                                                ; preds = %3
  %8 = getelementptr inbounds nuw i8, ptr %0, i64 56
  %9 = load i64, ptr %8, align 8, !tbaa !10
  %10 = add i64 %9, -4611686018427387891
  %11 = icmp ult i64 %10, 13
  br i1 %11, label %12, label %_ZNSt7__cxx1112basic_stringIcSt11char_traitsIcESaIcEE6appendEPKc.exit

12:                                               ; preds = %7
  tail call void @_ZSt20__throw_length_errorPKc(ptr noundef nonnull @.str.290) #21
  unreachable

_ZNSt7__cxx1112basic_stringIcSt11char_traitsIcESaIcEE6appendEPKc.exit: ; preds = %7
  %13 = getelementptr inbounds nuw i8, ptr %0, i64 48
  %14 = tail call noundef nonnull align 8 dereferenceable(32) ptr @_ZNSt7__cxx1112basic_stringIcSt11char_traitsIcESaIcEE9_M_appendEPKcm(ptr noundef nonnull align 8 dereferenceable(32) %13, ptr noundef nonnull @.str.13, i64 noundef 13)
  %.sroa.3.0.insert.ext = zext i8 %1 to i64
  %.sroa.3.0.insert.shift = shl nuw nsw i64 %.sroa.3.0.insert.ext, 16
  %.sroa.2.0.insert.insert = or disjoint i64 %.sroa.3.0.insert.shift, 268468224
  tail call void @_ZN4Luau7CodeGen3X6418AssemblyBuilderX643logENS1_10OperandX64E(ptr noundef nonnull align 8 dereferenceable(252) %0, i64 %.sroa.2.0.insert.insert)
  tail call void (ptr, ptr, ...) @_ZN4Luau7CodeGen3X6418AssemblyBuilderX649logAppendEPKcz(ptr noundef nonnull align 8 dereferenceable(252) %0, ptr noundef nonnull @.str.14, i64 noundef %2)
  br label %15

15:                                               ; preds = %_ZNSt7__cxx1112basic_stringIcSt11char_traitsIcESaIcEE6appendEPKc.exit, %3
  %16 = and i8 %1, 7
  %17 = icmp eq i8 %16, 4
  %18 = icmp eq i8 %16, 1
  %19 = icmp ugt i8 %1, 31
  %20 = and i1 %19, %18
  %21 = or i1 %17, %20
  %22 = select i1 %21, i8 8, i8 0
  %23 = lshr i8 %1, 6
  %24 = and i8 %23, 1
  %25 = or disjoint i8 %22, %24
  %.not.i = icmp eq i8 %25, 0
  br i1 %.not.i, label %_ZN4Luau7CodeGen3X6418AssemblyBuilderX648placeRexENS1_11RegisterX64E.exit, label %26

26:                                               ; preds = %15
  %27 = or disjoint i8 %25, 64
  %28 = getelementptr inbounds nuw i8, ptr %0, i64 232
  %29 = load ptr, ptr %28, align 8, !tbaa !51
  %30 = getelementptr inbounds nuw i8, ptr %29, i64 1
  store ptr %30, ptr %28, align 8, !tbaa !51
  store i8 %27, ptr %29, align 1, !tbaa !13
  br label %_ZN4Luau7CodeGen3X6418AssemblyBuilderX648placeRexENS1_11RegisterX64E.exit

_ZN4Luau7CodeGen3X6418AssemblyBuilderX648placeRexENS1_11RegisterX64E.exit: ; preds = %15, %26
  %31 = lshr i8 %1, 3
  %32 = or i8 %31, -72
  %33 = getelementptr inbounds nuw i8, ptr %0, i64 232
  %34 = load ptr, ptr %33, align 8, !tbaa !51
  %35 = getelementptr inbounds nuw i8, ptr %34, i64 1
  store ptr %35, ptr %33, align 8, !tbaa !51
  store i8 %32, ptr %34, align 1, !tbaa !13
  %36 = load ptr, ptr %33, align 8, !tbaa !51
  store i64 %2, ptr %36, align 1
  %37 = getelementptr inbounds nuw i8, ptr %36, i64 8
  store ptr %37, ptr %33, align 8, !tbaa !51
  %38 = getelementptr inbounds nuw i8, ptr %0, i64 248
  %39 = load i32, ptr %38, align 8, !tbaa !63
  %40 = add i32 %39, 1
  store i32 %40, ptr %38, align 8, !tbaa !63
  %41 = getelementptr inbounds nuw i8, ptr %0, i64 240
  %42 = load ptr, ptr %41, align 8, !tbaa !52
  %43 = ptrtoint ptr %42 to i64
  %44 = ptrtoint ptr %37 to i64
  %45 = sub i64 %43, %44
  %46 = and i64 %45, 4294967280
  %47 = icmp eq i64 %46, 0
  br i1 %47, label %48, label %_ZN4Luau7CodeGen3X6418AssemblyBuilderX646commitEv.exit

48:                                               ; preds = %_ZN4Luau7CodeGen3X6418AssemblyBuilderX648placeRexENS1_11RegisterX64E.exit
  tail call void @_ZN4Luau7CodeGen3X6418AssemblyBuilderX646extendEv(ptr noundef nonnull align 8 dereferenceable(252) %0)
  br label %_ZN4Luau7CodeGen3X6418AssemblyBuilderX646commitEv.exit

_ZN4Luau7CodeGen3X6418AssemblyBuilderX646commitEv.exit: ; preds = %_ZN4Luau7CodeGen3X6418AssemblyBuilderX648placeRexENS1_11RegisterX64E.exit, %48
  ret void
}